; Function Attrs: nounwind uwtable
define dso_local void @uv_free_interface_addresses(ptr noundef %0, i32 noundef %1) local_unnamed_addr #0 {
  %3 = icmp sgt i32 %1, 0
  br i1 %3, label %.lr.ph.preheader, label %._crit_edge

.lr.ph.preheader:                                 ; preds = %2
  %wide.trip.count = zext nneg i32 %1 to i64
  br label %.lr.ph

.lr.ph:                                           ; preds = %.lr.ph.preheader, %.lr.ph
  %indvars.iv = phi i64 [ 0, %.lr.ph.preheader ], [ %indvars.iv.next, %.lr.ph ]
  %4 = getelementptr inbounds nuw %struct.uv_interface_address_s, ptr %0, i64 %indvars.iv
  %5 = load ptr, ptr %4, align 8, !tbaa !60
  tail call void @uv__free(ptr noundef %5) #13
  %indvars.iv.next = add nuw nsw i64 %indvars.iv, 1
  %exitcond.not = icmp eq i64 %indvars.iv.next, %wide.trip.count
  br i1 %exitcond.not, label %._crit_edge, label %.lr.ph, !llvm.loop !70

._crit_edge:                                      ; preds = %.lr.ph, %2
  tail call void @uv__free(ptr noundef %0) #13
  ret void
}